target datalayout = "e-m:e-p270:32:32-p271:32:32-p272:64:64-i64:64-i128:128-f80:128-n8:16:32:64-S128"
target triple = "x86_64-pc-linux-gnu"

%struct.slurm_opt_t = type { ptr, ptr, ptr, ptr, ptr, ptr, ptr, ptr, i32, ptr, ptr, ptr, ptr, i32, i32, ptr, i32, i8, i8, i32, i8, i32, i32, ptr, i8, i32, i32, i64, i32, i32, i32, i32, i32, i32, ptr, i32, ptr, i8, i32, i32, ptr, i32, i32, i32, ptr, ptr, i32, i32, ptr, ptr, ptr, i32, i16, i16, i16, i8, i8, ptr, i8, i16, ptr, ptr, i32, i32, i32, ptr, ptr, ptr, ptr, ptr, ptr, i32, i64, i64, i64, i16, i64, ptr, ptr, ptr, ptr, ptr, ptr, ptr, i8, ptr, ptr, ptr, ptr, i8, i64, ptr, i16, ptr, i32, i32, ptr, ptr, i32, i32, i32, ptr, i32, i32, i32, i32, i32, ptr, i64, i32, i16, i32, ptr, ptr, ptr, ptr, ptr, i16, ptr, ptr, i16, i8, ptr, ptr, ptr, ptr }

@.str.18 = private unnamed_addr constant [26 x i8] c"Invalid task range, %d-%d\00", align 1
@.str.19 = private unnamed_addr constant [24 x i8] c"Invalid task id, %d < 0\00", align 1
@_update_task_mask.i_set_ntasks = internal global i8 0, align 1
@.str.20 = private unnamed_addr constant [30 x i8] c"Invalid task id, %d >= ntasks\00", align 1
@.str.21 = private unnamed_addr constant [29 x i8] c"Duplicate record for task %d\00", align 1

; Function Attrs: nounwind uwtable
define internal i32 @_update_task_mask(i32 noundef %0, i32 noundef %1, ptr noundef %2, ptr noundef %3, i1 noundef zeroext %4) #0 {
  %6 = alloca i32, align 4
  %7 = alloca i32, align 4
  %8 = alloca i32, align 4
  %9 = alloca ptr, align 8
  %10 = alloca ptr, align 8
  %11 = alloca i8, align 1
  %12 = alloca i32, align 4
  %13 = alloca i32, align 4
  store i32 %0, ptr %7, align 4
  store i32 %1, ptr %8, align 4
  store ptr %2, ptr %9, align 8
  store ptr %3, ptr %10, align 8
  %14 = zext i1 %4 to i8
  store i8 %14, ptr %11, align 1
  call void @llvm.lifetime.start.p0(i64 4, ptr %12) #8
  %15 = load i32, ptr %7, align 4
  %16 = load i32, ptr %8, align 4
  %17 = icmp sgt i32 %15, %16
  br i1 %17, label %18, label %22

18:                                               ; preds = %5
  %19 = load i32, ptr %7, align 4
  %20 = load i32, ptr %8, align 4
  %21 = call i32 (ptr, ...) @error(ptr noundef @.str.18, i32 noundef %19, i32 noundef %20)
  store i32 -1, ptr %6, align 4
  store i32 1, ptr %13, align 4
  br label %88

22:                                               ; preds = %5
  %23 = load i32, ptr %7, align 4
  %24 = icmp slt i32 %23, 0
  br i1 %24, label %25, label %28

25:                                               ; preds = %22
  %26 = load i32, ptr %7, align 4
  %27 = call i32 (ptr, ...) @error(ptr noundef @.str.19, i32 noundef %26)
  store i32 -1, ptr %6, align 4
  store i32 1, ptr %13, align 4
  br label %88

28:                                               ; preds = %22
  %29 = load i32, ptr %8, align 4
  %30 = load ptr, ptr %9, align 8
  %31 = getelementptr inbounds nuw %struct.slurm_opt_t, ptr %30, i32 0, i32 16
  %32 = load i32, ptr %31, align 8
  %33 = icmp sge i32 %29, %32
  br i1 %33, label %34, label %59

34:                                               ; preds = %28
  %35 = load ptr, ptr %9, align 8
  %36 = getelementptr inbounds nuw %struct.slurm_opt_t, ptr %35, i32 0, i32 17
  %37 = load i8, ptr %36, align 4, !range !11, !noundef !12
  %38 = trunc i8 %37 to i1
  br i1 %38, label %39, label %45

39:                                               ; preds = %34
  %40 = load i8, ptr @_update_task_mask.i_set_ntasks, align 1, !range !11, !noundef !12
  %41 = trunc i8 %40 to i1
  br i1 %41, label %45, label %42

42:                                               ; preds = %39
  %43 = load i32, ptr %8, align 4
  %44 = call i32 (ptr, ...) @error(ptr noundef @.str.20, i32 noundef %43)
  store i32 -1, ptr %6, align 4
  store i32 1, ptr %13, align 4
  br label %88

45:                                               ; preds = %39, %34
  %46 = load i32, ptr %8, align 4
  %47 = add nsw i32 %46, 1
  %48 = load ptr, ptr %9, align 8
  %49 = getelementptr inbounds nuw %struct.slurm_opt_t, ptr %48, i32 0, i32 16
  store i32 %47, ptr %49, align 8
  %50 = load ptr, ptr %9, align 8
  %51 = getelementptr inbounds nuw %struct.slurm_opt_t, ptr %50, i32 0, i32 17
  store i8 1, ptr %51, align 4
  store i8 1, ptr @_update_task_mask.i_set_ntasks, align 1
  %52 = load ptr, ptr %10, align 8
  %53 = load ptr, ptr %9, align 8
  %54 = getelementptr inbounds nuw %struct.slurm_opt_t, ptr %53, i32 0, i32 16
  %55 = load i32, ptr %54, align 8
  %56 = sext i32 %55 to i64
  %57 = call ptr @slurm_bit_realloc(ptr noundef %52, i64 noundef %56)
  br label %58

58:                                               ; preds = %45
  br label %59

59:                                               ; preds = %58, %28
  %60 = load i32, ptr %7, align 4
  store i32 %60, ptr %12, align 4
  br label %61

61:                                               ; preds = %84, %59
  %62 = load i32, ptr %12, align 4
  %63 = load i32, ptr %8, align 4
  %64 = icmp sle i32 %62, %63
  br i1 %64, label %65, label %87

65:                                               ; preds = %61
  %66 = load ptr, ptr %10, align 8
  %67 = load ptr, ptr %66, align 8
  %68 = load i32, ptr %12, align 4
  %69 = sext i32 %68 to i64
  %70 = call i32 @slurm_bit_test(ptr noundef %67, i64 noundef %69)
  %71 = icmp ne i32 %70, 0
  br i1 %71, label %72, label %79

72:                                               ; preds = %65
  %73 = load i8, ptr %11, align 1, !range !11, !noundef !12
  %74 = trunc i8 %73 to i1
  br i1 %74, label %75, label %76

75:                                               ; preds = %72
  br label %84

76:                                               ; preds = %72
  %77 = load i32, ptr %12, align 4
  %78 = call i32 (ptr, ...) @error(ptr noundef @.str.21, i32 noundef %77)
  store i32 -1, ptr %6, align 4
  store i32 1, ptr %13, align 4
  br label %88

79:                                               ; preds = %65
  %80 = load ptr, ptr %10, align 8
  %81 = load ptr, ptr %80, align 8
  %82 = load i32, ptr %12, align 4
  %83 = sext i32 %82 to i64
  call void @bit_set(ptr noundef %81, i64 noundef %83)
  br label %84

84:                                               ; preds = %79, %75
  %85 = load i32, ptr %12, align 4
  %86 = add nsw i32 %85, 1
  store i32 %86, ptr %12, align 4
  br label %61, !llvm.loop !26

87:                                               ; preds = %61
  store i32 0, ptr %6, align 4
  store i32 1, ptr %13, align 4
  br label %88

88:                                               ; preds = %87, %76, %42, %25, %18
  call void @llvm.lifetime.end.p0(i64 4, ptr %12) #8
  %89 = load i32, ptr %6, align 4
  ret i32 %89
}